; Function Attrs: mustprogress nofree norecurse nosync nounwind willreturn memory(read, inaccessiblemem: none) uwtable
define noundef double @_ZNK8QuantLib18PolynomialFunctionclEd(ptr nocapture noundef nonnull readonly align 8 dereferenceable(112) %this, double noundef %t) local_unnamed_addr #6 align 2 {
entry:
  %0 = load i64, ptr %this, align 8, !tbaa !13
  %cmp5.not = icmp eq i64 %0, 0
  br i1 %cmp5.not, label %for.cond.cleanup, label %for.body.lr.ph

for.body.lr.ph:                                   ; preds = %entry
  %c_ = getelementptr inbounds nuw i8, ptr %this, i64 8
  %1 = load ptr, ptr %c_, align 8, !tbaa !28
  br label %for.body

for.cond.cleanup:                                 ; preds = %for.body, %entry
  %result.0.lcssa = phi double [ 0.000000e+00, %entry ], [ %3, %for.body ]
  ret double %result.0.lcssa

for.body:                                         ; preds = %for.body.lr.ph, %for.body
  %i.08 = phi i64 [ 0, %for.body.lr.ph ], [ %inc, %for.body ]
  %tPower.07 = phi double [ 1.000000e+00, %for.body.lr.ph ], [ %mul, %for.body ]
  %result.06 = phi double [ 0.000000e+00, %for.body.lr.ph ], [ %3, %for.body ]
  %add.ptr.i = getelementptr inbounds nuw double, ptr %1, i64 %i.08
  %2 = load double, ptr %add.ptr.i, align 8, !tbaa !27
  %3 = tail call double @llvm.fmuladd.f64(double %2, double %tPower.07, double %result.06)
  %mul = fmul double %t, %tPower.07
  %inc = add nuw i64 %i.08, 1
  %exitcond.not = icmp eq i64 %inc, %0
  br i1 %exitcond.not, label %for.cond.cleanup, label %for.body, !llvm.loop !41
}